; Function Attrs: nofree norecurse nosync nounwind memory(read, inaccessiblemem: none) uwtable
define i32 @Tim_ManBlackBoxNum(ptr noundef readonly captures(none) %0) local_unnamed_addr #10 {
  %2 = load ptr, ptr %0, align 8
  %.not.i = icmp eq ptr %2, null
  br i1 %.not.i, label %.critedge, label %Tim_ManBoxNum.exit

Tim_ManBoxNum.exit:                               ; preds = %1
  %3 = getelementptr i8, ptr %2, i64 4
  %.val.i = load i32, ptr %3, align 4
  %4 = icmp sgt i32 %.val.i, 0
  br i1 %4, label %.lr.ph, label %.critedge

.lr.ph:                                           ; preds = %Tim_ManBoxNum.exit
  %5 = getelementptr i8, ptr %2, i64 8
  %.val9 = load ptr, ptr %5, align 8
  %wide.trip.count = zext nneg i32 %.val.i to i64
  br label %6

6:                                                ; preds = %.lr.ph, %6
  %indvars.iv = phi i64 [ 0, %.lr.ph ], [ %indvars.iv.next, %6 ]
  %.112 = phi i32 [ 0, %.lr.ph ], [ %11, %6 ]
  %7 = getelementptr inbounds nuw ptr, ptr %.val9, i64 %indvars.iv
  %8 = load ptr, ptr %7, align 8
  %9 = getelementptr inbounds nuw i8, ptr %8, i64 24
  %10 = load i32, ptr %9, align 4
  %11 = add nsw i32 %10, %.112
  %indvars.iv.next = add nuw nsw i64 %indvars.iv, 1
  %exitcond.not = icmp eq i64 %indvars.iv.next, %wide.trip.count
  br i1 %exitcond.not, label %.critedge, label %6, !llvm.loop !52

.critedge:                                        ; preds = %6, %1, %Tim_ManBoxNum.exit
  %.0 = phi i32 [ 0, %Tim_ManBoxNum.exit ], [ 0, %1 ], [ %11, %6 ]
  ret i32 %.0
}